(dp1
S'Unknown'
p2
S'female'
p3
sS'Daniel'
p4
S'male'
p5
sS'Zeng'
p6
S'male'
p7
sS'Nadia'
p8
S'female'
p9
sS'Alex'
p10
S'female'
p11
sS'Francois'
p12
S'male'
p13
sS'Jacqueline'
p14
S'female'
p15
sS'Vanessa'
p16
S'female'
p17
sS'Aryel'
p18
g5
sS'Manoj'
p19
S'male'
p20
sS'Tianli'
p21
S'male'
p22
sS'Karamjit'
p23
S'male'
p24
sS'Don'
p25
S'male'
p26
sS'James'
p27
g5
sS'Cindy'
p28
g9
sS'Rubha'
p29
S'female'
p30
sS'Jason'
p31
g5
sS'Dieter'
p32
S'male'
p33
sS'Venassa'
p34
S'female'
p35
sS'Yarek'
p36
g22
sS'Claudio'
p37
S'male'
p38
sS'Skype'
p39
S'male'
p40
sS'Mariko'
p41
g9
s.